; ModuleID = '20/293.c'
source_filename = "20/293.c"
target datalayout = "e-m:e-p270:32:32-p271:32:32-p272:64:64-i64:64-f80:128-n8:16:32:64-S128"
target triple = "x86_64-pc-linux-gnu"

@.str = private unnamed_addr constant [5 x i8] c"%s%s\00", align 1
@.str.1 = private unnamed_addr constant [3 x i8] c"%c\00", align 1
@.str.2 = private unnamed_addr constant [3 x i8] c"%s\00", align 1
@.str.3 = private unnamed_addr constant [2 x i8] c"\0A\00", align 1

; Function Attrs: noinline nounwind uwtable
define dso_local void @main() #0 {
  %1 = alloca [30 x i8], align 16
  %2 = alloca [4 x i8], align 1
  %3 = alloca i8, align 1
  %4 = alloca i32, align 4
  %5 = alloca i32, align 4
  %6 = alloca i32, align 4
  %7 = getelementptr inbounds [30 x i8], [30 x i8]* %1, i64 0, i64 0
  %8 = getelementptr inbounds [4 x i8], [4 x i8]* %2, i64 0, i64 0
  %9 = call i32 (i8*, ...) @__isoc99_scanf(i8* getelementptr inbounds ([5 x i8], [5 x i8]* @.str, i64 0, i64 0), i8* %7, i8* %8)
  br label %10

10:                                               ; preds = %122, %0
  %11 = getelementptr inbounds [30 x i8], [30 x i8]* %1, i64 0, i64 0
  %12 = load i8, i8* %11, align 16
  %13 = sext i8 %12 to i32
  %14 = icmp ne i32 %13, 48
  br i1 %14, label %15, label %126

15:                                               ; preds = %10
  %16 = getelementptr inbounds [30 x i8], [30 x i8]* %1, i64 0, i64 0
  %17 = call i64 @strlen(i8* %16) #3
  %18 = trunc i64 %17 to i32
  store i32 %18, i32* %5, align 4
  store i32 0, i32* %4, align 4
  %19 = getelementptr inbounds [30 x i8], [30 x i8]* %1, i64 0, i64 0
  %20 = load i8, i8* %19, align 16
  store i8 %20, i8* %3, align 1
  br label %21

21:                                               ; preds = %40, %15
  %22 = load i32, i32* %4, align 4
  %23 = load i32, i32* %5, align 4
  %24 = icmp slt i32 %22, %23
  br i1 %24, label %25, label %43

25:                                               ; preds = %21
  %26 = load i32, i32* %4, align 4
  %27 = sext i32 %26 to i64
  %28 = getelementptr inbounds [30 x i8], [30 x i8]* %1, i64 0, i64 %27
  %29 = load i8, i8* %28, align 1
  %30 = sext i8 %29 to i32
  %31 = load i8, i8* %3, align 1
  %32 = sext i8 %31 to i32
  %33 = icmp sgt i32 %30, %32
  br i1 %33, label %34, label %39

34:                                               ; preds = %25
  %35 = load i32, i32* %4, align 4
  %36 = sext i32 %35 to i64
  %37 = getelementptr inbounds [30 x i8], [30 x i8]* %1, i64 0, i64 %36
  %38 = load i8, i8* %37, align 1
  store i8 %38, i8* %3, align 1
  br label %39

39:                                               ; preds = %34, %25
  br label %40

40:                                               ; preds = %39
  %41 = load i32, i32* %4, align 4
  %42 = add nsw i32 %41, 1
  store i32 %42, i32* %4, align 4
  br label %21

43:                                               ; preds = %21
  store i32 0, i32* %4, align 4
  br label %44

44:                                               ; preds = %60, %43
  %45 = load i32, i32* %4, align 4
  %46 = load i32, i32* %5, align 4
  %47 = icmp slt i32 %45, %46
  br i1 %47, label %48, label %63

48:                                               ; preds = %44
  %49 = load i32, i32* %4, align 4
  %50 = sext i32 %49 to i64
  %51 = getelementptr inbounds [30 x i8], [30 x i8]* %1, i64 0, i64 %50
  %52 = load i8, i8* %51, align 1
  %53 = sext i8 %52 to i32
  %54 = load i8, i8* %3, align 1
  %55 = sext i8 %54 to i32
  %56 = icmp eq i32 %53, %55
  br i1 %56, label %57, label %59

57:                                               ; preds = %48
  %58 = load i32, i32* %4, align 4
  store i32 %58, i32* %6, align 4
  br label %63

59:                                               ; preds = %48
  br label %60

60:                                               ; preds = %59
  %61 = load i32, i32* %4, align 4
  %62 = add nsw i32 %61, 1
  store i32 %62, i32* %4, align 4
  br label %44

63:                                               ; preds = %57, %44
  store i32 0, i32* %4, align 4
  br label %64

64:                                               ; preds = %76, %63
  %65 = load i32, i32* %4, align 4
  %66 = load i32, i32* %6, align 4
  %67 = add nsw i32 %66, 1
  %68 = icmp slt i32 %65, %67
  br i1 %68, label %69, label %79

69:                                               ; preds = %64
  %70 = load i32, i32* %4, align 4
  %71 = sext i32 %70 to i64
  %72 = getelementptr inbounds [30 x i8], [30 x i8]* %1, i64 0, i64 %71
  %73 = load i8, i8* %72, align 1
  %74 = sext i8 %73 to i32
  %75 = call i32 (i8*, ...) @printf(i8* getelementptr inbounds ([3 x i8], [3 x i8]* @.str.1, i64 0, i64 0), i32 %74)
  br label %76

76:                                               ; preds = %69
  %77 = load i32, i32* %4, align 4
  %78 = add nsw i32 %77, 1
  store i32 %78, i32* %4, align 4
  br label %64

79:                                               ; preds = %64
  %80 = getelementptr inbounds [4 x i8], [4 x i8]* %2, i64 0, i64 0
  %81 = call i32 (i8*, ...) @printf(i8* getelementptr inbounds ([3 x i8], [3 x i8]* @.str.2, i64 0, i64 0), i8* %80)
  %82 = load i32, i32* %6, align 4
  %83 = add nsw i32 %82, 1
  store i32 %83, i32* %4, align 4
  br label %84

84:                                               ; preds = %95, %79
  %85 = load i32, i32* %4, align 4
  %86 = load i32, i32* %5, align 4
  %87 = icmp slt i32 %85, %86
  br i1 %87, label %88, label %98

88:                                               ; preds = %84
  %89 = load i32, i32* %4, align 4
  %90 = sext i32 %89 to i64
  %91 = getelementptr inbounds [30 x i8], [30 x i8]* %1, i64 0, i64 %90
  %92 = load i8, i8* %91, align 1
  %93 = sext i8 %92 to i32
  %94 = call i32 (i8*, ...) @printf(i8* getelementptr inbounds ([3 x i8], [3 x i8]* @.str.1, i64 0, i64 0), i32 %93)
  br label %95

95:                                               ; preds = %88
  %96 = load i32, i32* %4, align 4
  %97 = add nsw i32 %96, 1
  store i32 %97, i32* %4, align 4
  br label %84

98:                                               ; preds = %84
  %99 = call i32 (i8*, ...) @printf(i8* getelementptr inbounds ([2 x i8], [2 x i8]* @.str.3, i64 0, i64 0))
  store i32 0, i32* %4, align 4
  br label %100

100:                                              ; preds = %108, %98
  %101 = load i32, i32* %4, align 4
  %102 = load i32, i32* %5, align 4
  %103 = icmp slt i32 %101, %102
  br i1 %103, label %104, label %111

104:                                              ; preds = %100
  %105 = load i32, i32* %4, align 4
  %106 = sext i32 %105 to i64
  %107 = getelementptr inbounds [30 x i8], [30 x i8]* %1, i64 0, i64 %106
  store i8 48, i8* %107, align 1
  br label %108

108:                                              ; preds = %104
  %109 = load i32, i32* %4, align 4
  %110 = add nsw i32 %109, 1
  store i32 %110, i32* %4, align 4
  br label %100

111:                                              ; preds = %100
  store i32 0, i32* %4, align 4
  br label %112

112:                                              ; preds = %119, %111
  %113 = load i32, i32* %4, align 4
  %114 = icmp slt i32 %113, 3
  br i1 %114, label %115, label %122

115:                                              ; preds = %112
  %116 = load i32, i32* %4, align 4
  %117 = sext i32 %116 to i64
  %118 = getelementptr inbounds [4 x i8], [4 x i8]* %2, i64 0, i64 %117
  store i8 48, i8* %118, align 1
  br label %119

119:                                              ; preds = %115
  %120 = load i32, i32* %4, align 4
  %121 = add nsw i32 %120, 1
  store i32 %121, i32* %4, align 4
  br label %112

122:                                              ; preds = %112
  %123 = getelementptr inbounds [30 x i8], [30 x i8]* %1, i64 0, i64 0
  %124 = getelementptr inbounds [4 x i8], [4 x i8]* %2, i64 0, i64 0
  %125 = call i32 (i8*, ...) @__isoc99_scanf(i8* getelementptr inbounds ([5 x i8], [5 x i8]* @.str, i64 0, i64 0), i8* %123, i8* %124)
  br label %10

126:                                              ; preds = %10
  ret void
}

declare dso_local i32 @__isoc99_scanf(i8*, ...) #1

; Function Attrs: nounwind readonly
declare dso_local i64 @strlen(i8*) #2

declare dso_local i32 @printf(i8*, ...) #1


!llvm.module.flags = !{!0}
!llvm.ident = !{!1}

!0 = !{i32 1, !"wchar_size", i32 4}
!1 = !{!"clang version 10.0.0-4ubuntu1 "}
